target datalayout = "e-m:e-p270:32:32-p271:32:32-p272:64:64-i64:64-i128:128-f80:128-n8:16:32:64-S128"
target triple = "x86_64-pc-linux-gnu"

%class.Register = type { i32 }
%class.Label = type <{ i32, [4 x i32], i32, ptr, i8, [7 x i8] }>
%class.RelocationHolder = type { [40 x i8] }
%class.BarrierSet = type { ptr, %class.FakeRttiSupport, ptr, ptr, ptr, ptr, ptr }
%class.FakeRttiSupport = type <{ i64, i32, [4 x i8] }>
%class.LIR_Opr = type { i64 }
%class.AddressLiteral = type { %class.RelocationHolder, i8, ptr }
%class.RuntimeAddress = type { %class.AddressLiteral }
%class.LIR_Assembler = type { ptr, ptr, ptr, ptr, ptr, ptr, i32, i32, %class.Label }
%class.CodeStub = type { ptr, %class.Label, %class.Label }
%class.G1PreBarrierStub = type { %class.CodeStub, i8, %class.LIR_Opr, %class.LIR_Opr, i32, ptr }
%class.G1BarrierSetC1 = type { %class.ModRefBarrierSetC1, ptr, ptr }
%class.ModRefBarrierSetC1 = type { %class.BarrierSetC1 }
%class.BarrierSetC1 = type { ptr }
%class.CodeBlob = type <{ ptr, ptr, ptr, i32, i32, i32, i32, i32, i32, i16, i16, i8, i8, [2 x i8] }>

@_ZL3rax = internal constant %class.Register zeroinitializer, align 4
@_ZN10BarrierSet12_barrier_setE = external global ptr, align 8

; Function Attrs: mustprogress nounwind uwtable
define linkonce_odr hidden noundef ptr @_ZNK16RelocationHolder5relocEv(ptr noundef nonnull align 8 dereferenceable(40) %0) #1 comdat align 2 {
  %2 = alloca ptr, align 8
  store ptr %0, ptr %2, align 8
  %3 = load ptr, ptr %2, align 8
  %4 = getelementptr inbounds %class.RelocationHolder, ptr %3, i32 0, i32 0
  %5 = getelementptr inbounds [40 x i8], ptr %4, i64 0, i64 0
  ret ptr %5
}

; Function Attrs: mustprogress nounwind uwtable
define linkonce_odr hidden void @_ZN16RelocationHolderC2ERKS_(ptr noundef nonnull align 8 dereferenceable(40) %0, ptr noundef nonnull align 8 dereferenceable(40) %1) unnamed_addr #1 comdat align 2 {
  %3 = alloca ptr, align 8
  %4 = alloca ptr, align 8
  store ptr %0, ptr %3, align 8
  store ptr %1, ptr %4, align 8
  %5 = load ptr, ptr %3, align 8
  %6 = load ptr, ptr %4, align 8
  %7 = call noundef ptr @_ZNK16RelocationHolder5relocEv(ptr noundef nonnull align 8 dereferenceable(40) %6)
  %8 = load ptr, ptr %7, align 8
  %9 = getelementptr inbounds ptr, ptr %8, i64 2
  %10 = load ptr, ptr %9, align 8
  call void %10(ptr noundef nonnull align 8 dereferenceable(20) %7, ptr noundef nonnull align 8 dereferenceable(40) %5)
  ret void
}

; Function Attrs: mustprogress nounwind uwtable
define linkonce_odr hidden noundef ptr @_ZNK8CodeBlob12header_beginEv(ptr noundef nonnull align 8 dereferenceable(54) %0) #1 comdat align 2 {
  %2 = alloca ptr, align 8
  store ptr %0, ptr %2, align 8
  %3 = load ptr, ptr %2, align 8
  ret ptr %3
}

; Function Attrs: mustprogress nounwind uwtable
define linkonce_odr hidden void @_ZN14AddressLiteralC2EOS_(ptr noundef nonnull align 8 dereferenceable(56) %0, ptr noundef nonnull align 8 dereferenceable(56) %1) unnamed_addr #1 comdat align 2 {
  %3 = alloca ptr, align 8
  %4 = alloca ptr, align 8
  store ptr %0, ptr %3, align 8
  store ptr %1, ptr %4, align 8
  %5 = load ptr, ptr %3, align 8
  %6 = getelementptr inbounds %class.AddressLiteral, ptr %5, i32 0, i32 0
  %7 = load ptr, ptr %4, align 8
  %8 = getelementptr inbounds %class.AddressLiteral, ptr %7, i32 0, i32 0
  call void @_ZN16RelocationHolderC2ERKS_(ptr noundef nonnull align 8 dereferenceable(40) %6, ptr noundef nonnull align 8 dereferenceable(40) %8)
  %9 = getelementptr inbounds %class.AddressLiteral, ptr %5, i32 0, i32 1
  %10 = load ptr, ptr %4, align 8
  %11 = getelementptr inbounds %class.AddressLiteral, ptr %10, i32 0, i32 1
  call void @llvm.memcpy.p0.p0.i64(ptr align 8 %9, ptr align 8 %11, i64 16, i1 false)
  ret void
}

; Function Attrs: mustprogress nounwind uwtable
define linkonce_odr hidden void @_ZN14RuntimeAddressC2EPh(ptr noundef nonnull align 8 dereferenceable(56) %0, ptr noundef %1) unnamed_addr #1 comdat align 2 {
  %3 = alloca ptr, align 8
  %4 = alloca ptr, align 8
  store ptr %0, ptr %3, align 8
  store ptr %1, ptr %4, align 8
  %5 = load ptr, ptr %3, align 8
  %6 = load ptr, ptr %4, align 8
  call void @_ZN14AddressLiteralC2EPhN9relocInfo9relocTypeE(ptr noundef nonnull align 8 dereferenceable(56) %5, ptr noundef %6, i32 noundef 6)
  ret void
}

; Function Attrs: mustprogress nounwind uwtable
define linkonce_odr hidden noundef ptr @_ZNK8CodeBlob10code_beginEv(ptr noundef nonnull align 8 dereferenceable(54) %0) #1 comdat align 2 {
  %2 = alloca ptr, align 8
  store ptr %0, ptr %2, align 8
  %3 = load ptr, ptr %2, align 8
  %4 = call noundef ptr @_ZNK8CodeBlob12header_beginEv(ptr noundef nonnull align 8 dereferenceable(54) %3)
  %5 = getelementptr inbounds %class.CodeBlob, ptr %3, i32 0, i32 6
  %6 = load i32, ptr %5, align 4
  %7 = sext i32 %6 to i64
  %8 = getelementptr inbounds i8, ptr %4, i64 %7
  ret ptr %8
}

; Function Attrs: mustprogress nounwind uwtable
define linkonce_odr hidden noundef ptr @_ZN14G1BarrierSetC132pre_barrier_c1_runtime_code_blobEv(ptr noundef nonnull align 8 dereferenceable(24) %0) #1 comdat align 2 {
  %2 = alloca ptr, align 8
  store ptr %0, ptr %2, align 8
  %3 = load ptr, ptr %2, align 8
  %4 = getelementptr inbounds %class.G1BarrierSetC1, ptr %3, i32 0, i32 1
  %5 = load ptr, ptr %4, align 8
  ret ptr %5
}

; Function Attrs: mustprogress nounwind uwtable
define linkonce_odr hidden noundef ptr @_ZN8CodeStub12continuationEv(ptr noundef nonnull align 8 dereferenceable(88) %0) #1 comdat align 2 {
  %2 = alloca ptr, align 8
  store ptr %0, ptr %2, align 8
  %3 = load ptr, ptr %2, align 8
  %4 = getelementptr inbounds %class.CodeStub, ptr %3, i32 0, i32 2
  ret ptr %4
}

; Function Attrs: mustprogress nounwind uwtable
define linkonce_odr hidden void @_ZN14MacroAssembler6cmpptrE8Registeri(ptr noundef nonnull align 8 dereferenceable(40) %0, i32 %1, i32 noundef %2) #1 comdat align 2 {
  %4 = alloca %class.Register, align 4
  %5 = alloca ptr, align 8
  %6 = alloca i32, align 4
  %7 = alloca %class.Register, align 4
  %8 = getelementptr inbounds %class.Register, ptr %4, i32 0, i32 0
  store i32 %1, ptr %8, align 4
  store ptr %0, ptr %5, align 8
  store i32 %2, ptr %6, align 4
  %9 = load ptr, ptr %5, align 8
  call void @llvm.memcpy.p0.p0.i64(ptr align 4 %7, ptr align 4 %4, i64 4, i1 false)
  %10 = load i32, ptr %6, align 4
  %11 = getelementptr inbounds %class.Register, ptr %7, i32 0, i32 0
  %12 = load i32, ptr %11, align 4
  call void @_ZN9Assembler4cmpqE8Registeri(ptr noundef nonnull align 8 dereferenceable(40) %9, i32 %12, i32 noundef %10)
  ret void
}

; Function Attrs: mustprogress nounwind uwtable
define linkonce_odr hidden noundef i32 @_ZNK16G1PreBarrierStub10patch_codeEv(ptr noundef nonnull align 8 dereferenceable(128) %0) #1 comdat align 2 {
  %2 = alloca ptr, align 8
  store ptr %0, ptr %2, align 8
  %3 = load ptr, ptr %2, align 8
  %4 = getelementptr inbounds %class.G1PreBarrierStub, ptr %3, i32 0, i32 4
  %5 = load i32, ptr %4, align 8
  ret i32 %5
}

; Function Attrs: mustprogress nounwind uwtable
define linkonce_odr hidden i64 @_ZNK16G1PreBarrierStub4addrEv(ptr noundef nonnull align 8 dereferenceable(128) %0) #1 comdat align 2 {
  %2 = alloca %class.LIR_Opr, align 8
  %3 = alloca ptr, align 8
  store ptr %0, ptr %3, align 8
  %4 = load ptr, ptr %3, align 8
  %5 = getelementptr inbounds %class.G1PreBarrierStub, ptr %4, i32 0, i32 2
  call void @llvm.memcpy.p0.p0.i64(ptr align 8 %2, ptr align 8 %5, i64 8, i1 false)
  %6 = getelementptr inbounds %class.LIR_Opr, ptr %2, i32 0, i32 0
  %7 = load i64, ptr %6, align 8
  ret i64 %7
}

; Function Attrs: mustprogress nounwind uwtable
define linkonce_odr hidden noundef zeroext i1 @_ZNK16G1PreBarrierStub7do_loadEv(ptr noundef nonnull align 8 dereferenceable(128) %0) #1 comdat align 2 {
  %2 = alloca ptr, align 8
  store ptr %0, ptr %2, align 8
  %3 = load ptr, ptr %2, align 8
  %4 = getelementptr inbounds %class.G1PreBarrierStub, ptr %3, i32 0, i32 1
  %5 = load i8, ptr %4, align 8
  %6 = trunc i8 %5 to i1
  ret i1 %6
}

; Function Attrs: mustprogress nounwind uwtable
define linkonce_odr hidden noundef ptr @_ZN7LIR_OprptEv(ptr noundef nonnull align 8 dereferenceable(8) %0) #1 comdat align 2 {
  %2 = alloca ptr, align 8
  store ptr %0, ptr %2, align 8
  %3 = load ptr, ptr %2, align 8
  ret ptr %3
}

; Function Attrs: mustprogress nounwind uwtable
define linkonce_odr hidden i64 @_ZNK16G1PreBarrierStub7pre_valEv(ptr noundef nonnull align 8 dereferenceable(128) %0) #1 comdat align 2 {
  %2 = alloca %class.LIR_Opr, align 8
  %3 = alloca ptr, align 8
  store ptr %0, ptr %3, align 8
  %4 = load ptr, ptr %3, align 8
  %5 = getelementptr inbounds %class.G1PreBarrierStub, ptr %4, i32 0, i32 3
  call void @llvm.memcpy.p0.p0.i64(ptr align 8 %2, ptr align 8 %5, i64 8, i1 false)
  %6 = getelementptr inbounds %class.LIR_Opr, ptr %2, i32 0, i32 0
  %7 = load i64, ptr %6, align 8
  ret i64 %7
}

; Function Attrs: mustprogress nounwind uwtable
define linkonce_odr hidden noundef ptr @_ZN8CodeStub5entryEv(ptr noundef nonnull align 8 dereferenceable(88) %0) #1 comdat align 2 {
  %2 = alloca ptr, align 8
  store ptr %0, ptr %2, align 8
  %3 = load ptr, ptr %2, align 8
  %4 = getelementptr inbounds %class.CodeStub, ptr %3, i32 0, i32 1
  ret ptr %4
}

; Function Attrs: mustprogress nounwind uwtable
define linkonce_odr hidden noundef ptr @_ZNK13LIR_Assembler4masmEv(ptr noundef nonnull align 8 dereferenceable(96) %0) #1 comdat align 2 {
  %2 = alloca ptr, align 8
  store ptr %0, ptr %2, align 8
  %3 = load ptr, ptr %2, align 8
  %4 = getelementptr inbounds %class.LIR_Assembler, ptr %3, i32 0, i32 0
  %5 = load ptr, ptr %4, align 8
  ret ptr %5
}

; Function Attrs: mustprogress nounwind uwtable
define linkonce_odr hidden noundef ptr @_ZN10BarrierSet14barrier_set_c1Ev(ptr noundef nonnull align 8 dereferenceable(64) %0) #1 comdat align 2 {
  %2 = alloca ptr, align 8
  store ptr %0, ptr %2, align 8
  %3 = load ptr, ptr %2, align 8
  %4 = getelementptr inbounds %class.BarrierSet, ptr %3, i32 0, i32 3
  %5 = load ptr, ptr %4, align 8
  ret ptr %5
}

; Function Attrs: mustprogress nounwind uwtable
define linkonce_odr hidden noundef ptr @_ZN10BarrierSet11barrier_setEv() #1 comdat align 2 {
  %1 = load ptr, ptr @_ZN10BarrierSet12_barrier_setE, align 8
  ret ptr %1
}

; Function Attrs: mustprogress nounwind uwtable
define hidden void @_ZN21G1BarrierSetAssembler20gen_pre_barrier_stubEP13LIR_AssemblerP16G1PreBarrierStub(ptr noundef nonnull align 8 dereferenceable(8) %0, ptr noundef %1, ptr noundef %2) #1 align 2 {
  %4 = alloca ptr, align 8
  %5 = alloca ptr, align 8
  %6 = alloca ptr, align 8
  %7 = alloca ptr, align 8
  %8 = alloca %class.Register, align 4
  %9 = alloca %class.LIR_Opr, align 8
  %10 = alloca %class.LIR_Opr, align 8
  %11 = alloca %class.LIR_Opr, align 8
  %12 = alloca %class.Register, align 4
  %13 = alloca %class.Register, align 4
  %14 = alloca %class.LIR_Opr, align 8
  %15 = alloca %class.AddressLiteral, align 8
  %16 = alloca %class.RuntimeAddress, align 8
  %17 = alloca %class.Register, align 4
  store ptr %0, ptr %4, align 8
  store ptr %1, ptr %5, align 8
  store ptr %2, ptr %6, align 8
  %18 = call noundef ptr @_ZN10BarrierSet11barrier_setEv()
  %19 = call noundef ptr @_ZN10BarrierSet14barrier_set_c1Ev(ptr noundef nonnull align 8 dereferenceable(64) %18)
  store ptr %19, ptr %7, align 8
  %20 = load ptr, ptr %5, align 8
  %21 = call noundef ptr @_ZNK13LIR_Assembler4masmEv(ptr noundef nonnull align 8 dereferenceable(96) %20)
  %22 = load ptr, ptr %6, align 8
  %23 = call noundef ptr @_ZN8CodeStub5entryEv(ptr noundef nonnull align 8 dereferenceable(88) %22)
  call void @_ZN17AbstractAssembler4bindER5Label(ptr noundef nonnull align 8 dereferenceable(24) %21, ptr noundef nonnull align 8 dereferenceable(33) %23)
  %24 = load ptr, ptr %6, align 8
  %25 = call i64 @_ZNK16G1PreBarrierStub7pre_valEv(ptr noundef nonnull align 8 dereferenceable(128) %24)
  %26 = getelementptr inbounds %class.LIR_Opr, ptr %9, i32 0, i32 0
  store i64 %25, ptr %26, align 8
  %27 = call noundef ptr @_ZN7LIR_OprptEv(ptr noundef nonnull align 8 dereferenceable(8) %9)
  %28 = call i32 @_ZNK7LIR_Opr11as_registerEv(ptr noundef nonnull align 8 dereferenceable(8) %27)
  %29 = getelementptr inbounds %class.Register, ptr %8, i32 0, i32 0
  store i32 %28, ptr %29, align 4
  %30 = load ptr, ptr %6, align 8
  %31 = call noundef zeroext i1 @_ZNK16G1PreBarrierStub7do_loadEv(ptr noundef nonnull align 8 dereferenceable(128) %30)
  br i1 %31, label %32, label %51

32:                                               ; preds = %3
  %33 = load ptr, ptr %5, align 8
  %34 = load ptr, ptr %6, align 8
  %35 = call i64 @_ZNK16G1PreBarrierStub4addrEv(ptr noundef nonnull align 8 dereferenceable(128) %34)
  %36 = getelementptr inbounds %class.LIR_Opr, ptr %10, i32 0, i32 0
  store i64 %35, ptr %36, align 8
  %37 = load ptr, ptr %6, align 8
  %38 = call i64 @_ZNK16G1PreBarrierStub7pre_valEv(ptr noundef nonnull align 8 dereferenceable(128) %37)
  %39 = getelementptr inbounds %class.LIR_Opr, ptr %11, i32 0, i32 0
  store i64 %38, ptr %39, align 8
  %40 = load ptr, ptr %6, align 8
  %41 = call noundef i32 @_ZNK16G1PreBarrierStub10patch_codeEv(ptr noundef nonnull align 8 dereferenceable(128) %40)
  %42 = load ptr, ptr %6, align 8
  %43 = load ptr, ptr %42, align 8
  %44 = getelementptr inbounds ptr, ptr %43, i64 1
  %45 = load ptr, ptr %44, align 8
  %46 = call noundef ptr %45(ptr noundef nonnull align 8 dereferenceable(128) %42)
  %47 = getelementptr inbounds %class.LIR_Opr, ptr %10, i32 0, i32 0
  %48 = load i64, ptr %47, align 8
  %49 = getelementptr inbounds %class.LIR_Opr, ptr %11, i32 0, i32 0
  %50 = load i64, ptr %49, align 8
  call void @_ZN13LIR_Assembler7mem2regE7LIR_OprS0_9BasicType13LIR_PatchCodeP12CodeEmitInfob(ptr noundef nonnull align 8 dereferenceable(96) %33, i64 %48, i64 %50, i8 noundef zeroext 12, i32 noundef %41, ptr noundef %46, i1 noundef zeroext false)
  br label %51

51:                                               ; preds = %32, %3
  %52 = load ptr, ptr %5, align 8
  %53 = call noundef ptr @_ZNK13LIR_Assembler4masmEv(ptr noundef nonnull align 8 dereferenceable(96) %52)
  call void @llvm.memcpy.p0.p0.i64(ptr align 4 %12, ptr align 4 %8, i64 4, i1 false)
  %54 = getelementptr inbounds %class.Register, ptr %12, i32 0, i32 0
  %55 = load i32, ptr %54, align 4
  call void @_ZN14MacroAssembler6cmpptrE8Registeri(ptr noundef nonnull align 8 dereferenceable(40) %53, i32 %55, i32 noundef 0)
  %56 = load ptr, ptr %5, align 8
  %57 = call noundef ptr @_ZNK13LIR_Assembler4masmEv(ptr noundef nonnull align 8 dereferenceable(96) %56)
  %58 = load ptr, ptr %6, align 8
  %59 = call noundef ptr @_ZN8CodeStub12continuationEv(ptr noundef nonnull align 8 dereferenceable(88) %58)
  call void @_ZN9Assembler3jccENS_9ConditionER5Labelb(ptr noundef nonnull align 8 dereferenceable(40) %57, i32 noundef 4, ptr noundef nonnull align 8 dereferenceable(33) %59, i1 noundef zeroext true)
  %60 = load ptr, ptr %5, align 8
  %61 = load ptr, ptr %6, align 8
  %62 = call i64 @_ZNK16G1PreBarrierStub7pre_valEv(ptr noundef nonnull align 8 dereferenceable(128) %61)
  %63 = getelementptr inbounds %class.LIR_Opr, ptr %14, i32 0, i32 0
  store i64 %62, ptr %63, align 8
  %64 = call noundef ptr @_ZN7LIR_OprptEv(ptr noundef nonnull align 8 dereferenceable(8) %14)
  %65 = call i32 @_ZNK7LIR_Opr11as_registerEv(ptr noundef nonnull align 8 dereferenceable(8) %64)
  %66 = getelementptr inbounds %class.Register, ptr %13, i32 0, i32 0
  store i32 %65, ptr %66, align 4
  %67 = getelementptr inbounds %class.Register, ptr %13, i32 0, i32 0
  %68 = load i32, ptr %67, align 4
  call void @_ZN13LIR_Assembler15store_parameterE8Registeri(ptr noundef nonnull align 8 dereferenceable(96) %60, i32 %68, i32 noundef 0)
  %69 = load ptr, ptr %5, align 8
  %70 = call noundef ptr @_ZNK13LIR_Assembler4masmEv(ptr noundef nonnull align 8 dereferenceable(96) %69)
  %71 = load ptr, ptr %7, align 8
  %72 = call noundef ptr @_ZN14G1BarrierSetC132pre_barrier_c1_runtime_code_blobEv(ptr noundef nonnull align 8 dereferenceable(24) %71)
  %73 = call noundef ptr @_ZNK8CodeBlob10code_beginEv(ptr noundef nonnull align 8 dereferenceable(54) %72)
  call void @_ZN14RuntimeAddressC2EPh(ptr noundef nonnull align 8 dereferenceable(56) %16, ptr noundef %73)
  call void @_ZN14AddressLiteralC2EOS_(ptr noundef nonnull align 8 dereferenceable(56) %15, ptr noundef nonnull align 8 dereferenceable(56) %16)
  call void @llvm.memcpy.p0.p0.i64(ptr align 4 %17, ptr align 4 @_ZL3rax, i64 4, i1 false)
  %74 = getelementptr inbounds %class.Register, ptr %17, i32 0, i32 0
  %75 = load i32, ptr %74, align 4
  call void @_ZN14MacroAssembler4callE14AddressLiteral8Register(ptr noundef nonnull align 8 dereferenceable(40) %70, ptr noundef %15, i32 %75)
  %76 = load ptr, ptr %5, align 8
  %77 = call noundef ptr @_ZNK13LIR_Assembler4masmEv(ptr noundef nonnull align 8 dereferenceable(96) %76)
  %78 = load ptr, ptr %6, align 8
  %79 = call noundef ptr @_ZN8CodeStub12continuationEv(ptr noundef nonnull align 8 dereferenceable(88) %78)
  call void @_ZN9Assembler3jmpER5Labelb(ptr noundef nonnull align 8 dereferenceable(40) %77, ptr noundef nonnull align 8 dereferenceable(33) %79, i1 noundef zeroext true)
  ret void
}